; Function Attrs: mustprogress nounwind uwtable
define void @_ZN6colvar8aspathCVD2Ev(ptr noundef nonnull align 8 dereferenceable(1680) initializes((0, 8), (320, 328)) %0) unnamed_addr #1 align 2 personality ptr @__gxx_personality_v0 {
  store ptr getelementptr inbounds nuw inrange(-16, 232) (i8, ptr @_ZTVN6colvar8aspathCVE, i64 16), ptr %0, align 8, !tbaa !122
  %2 = getelementptr inbounds nuw i8, ptr %0, i64 320
  store ptr getelementptr inbounds nuw inrange(-16, 48) (i8, ptr @_ZTVN6colvar8aspathCVE, i64 264), ptr %2, align 8, !tbaa !122
  %3 = getelementptr inbounds nuw i8, ptr %0, i64 1672
  %4 = load ptr, ptr %3, align 8, !tbaa !111
  %.not.i = icmp eq ptr %4, null
  br i1 %.not.i, label %_ZNSt10unique_ptrI18ArithmeticPathImplSt14default_deleteIS0_EED2Ev.exit, label %_ZNKSt14default_deleteI18ArithmeticPathImplEclEPS0_.exit.i

_ZNKSt14default_deleteI18ArithmeticPathImplEclEPS0_.exit.i: ; preds = %1
  tail call void @_ZN18ArithmeticPathImplD2Ev(ptr noundef nonnull align 8 dereferenceable(176) %4) #23
  tail call void @_ZdlPvm(ptr noundef nonnull %4, i64 noundef 176) #24
  br label %_ZNSt10unique_ptrI18ArithmeticPathImplSt14default_deleteIS0_EED2Ev.exit

_ZNSt10unique_ptrI18ArithmeticPathImplSt14default_deleteIS0_EED2Ev.exit: ; preds = %1, %_ZNKSt14default_deleteI18ArithmeticPathImplEclEPS0_.exit.i
  store ptr null, ptr %3, align 8, !tbaa !111
  tail call void @_ZN6colvar11CVBasedPathD2Ev(ptr noundef nonnull align 8 dereferenceable(1672) %0) #23
  ret void
}